target datalayout = "e-m:e-p270:32:32-p271:32:32-p272:64:64-i64:64-i128:128-f80:128-n8:16:32:64-S128"
target triple = "x86_64-pc-linux-gnu"

%"struct.net::QuicMultipathSentPacketManager::PathSentPacketManagerInfo" = type <{ ptr, i32, [4 x i8] }>
%"class.net::QuicMultipathSentPacketManager" = type { %"class.net::QuicSentPacketManagerInterface", %"class.std::vector", ptr }
%"class.net::QuicSentPacketManagerInterface" = type { ptr }
%"class.std::vector" = type { %"struct.std::_Vector_base" }
%"struct.std::_Vector_base" = type { %"struct.std::_Vector_base<net::QuicMultipathSentPacketManager::PathSentPacketManagerInfo, std::allocator<net::QuicMultipathSentPacketManager::PathSentPacketManagerInfo>>::_Vector_impl" }
%"struct.std::_Vector_base<net::QuicMultipathSentPacketManager::PathSentPacketManagerInfo, std::allocator<net::QuicMultipathSentPacketManager::PathSentPacketManagerInfo>>::_Vector_impl" = type { %"struct.std::_Vector_base<net::QuicMultipathSentPacketManager::PathSentPacketManagerInfo, std::allocator<net::QuicMultipathSentPacketManager::PathSentPacketManagerInfo>>::_Vector_impl_data" }
%"struct.std::_Vector_base<net::QuicMultipathSentPacketManager::PathSentPacketManagerInfo, std::allocator<net::QuicMultipathSentPacketManager::PathSentPacketManagerInfo>>::_Vector_impl_data" = type { ptr, ptr, ptr }
%"class.net::QuicTime" = type { i64 }
%"struct.net::QuicAckFrame" = type <{ i64, %"class.net::QuicTime::Delta", %"class.std::vector.10", %"class.net::PacketNumberQueue", i8, i8, i8, i8, [4 x i8] }>
%"class.net::QuicTime::Delta" = type { %"class.base::TimeDelta", i64 }
%"class.base::TimeDelta" = type { i64 }
%"class.std::vector.10" = type { %"struct.std::_Vector_base.11" }
%"struct.std::_Vector_base.11" = type { %"struct.std::_Vector_base<std::pair<unsigned long, net::QuicTime>, std::allocator<std::pair<unsigned long, net::QuicTime>>>::_Vector_impl" }
%"struct.std::_Vector_base<std::pair<unsigned long, net::QuicTime>, std::allocator<std::pair<unsigned long, net::QuicTime>>>::_Vector_impl" = type { %"struct.std::_Vector_base<std::pair<unsigned long, net::QuicTime>, std::allocator<std::pair<unsigned long, net::QuicTime>>>::_Vector_impl_data" }
%"struct.std::_Vector_base<std::pair<unsigned long, net::QuicTime>, std::allocator<std::pair<unsigned long, net::QuicTime>>>::_Vector_impl_data" = type { ptr, ptr, ptr }
%"class.net::PacketNumberQueue" = type { %"class.net::IntervalSet" }
%"class.net::IntervalSet" = type { %"class.std::set" }
%"class.std::set" = type { %"class.std::_Rb_tree" }
%"class.std::_Rb_tree" = type { %"struct.std::_Rb_tree<net::Interval<unsigned long>, net::Interval<unsigned long>, std::_Identity<net::Interval<unsigned long>>, net::IntervalSet<unsigned long>::IntervalComparator>::_Rb_tree_impl" }
%"struct.std::_Rb_tree<net::Interval<unsigned long>, net::Interval<unsigned long>, std::_Identity<net::Interval<unsigned long>>, net::IntervalSet<unsigned long>::IntervalComparator>::_Rb_tree_impl" = type { [8 x i8], %"struct.std::_Rb_tree_header" }
%"struct.std::_Rb_tree_header" = type { %"struct.std::_Rb_tree_node_base", i64 }
%"struct.std::_Rb_tree_node_base" = type { i32, ptr, ptr, ptr }

; Function Attrs: mustprogress nounwind uwtable
define linkonce_odr noundef nonnull align 8 dereferenceable(12) ptr @_ZNSt6vectorIN3net30QuicMultipathSentPacketManager25PathSentPacketManagerInfoESaIS2_EEixEm(ptr noundef nonnull align 8 dereferenceable(24) %0, i64 noundef %1) #2 comdat align 2 {
  %3 = alloca ptr, align 8
  %4 = alloca i64, align 8
  store ptr %0, ptr %3, align 8, !tbaa !22
  store i64 %1, ptr %4, align 8, !tbaa !44
  %5 = load ptr, ptr %3, align 8
  %6 = getelementptr inbounds nuw %"struct.std::_Vector_base", ptr %5, i32 0, i32 0
  %7 = getelementptr inbounds nuw %"struct.std::_Vector_base<net::QuicMultipathSentPacketManager::PathSentPacketManagerInfo, std::allocator<net::QuicMultipathSentPacketManager::PathSentPacketManagerInfo>>::_Vector_impl_data", ptr %6, i32 0, i32 0
  %8 = load ptr, ptr %7, align 8, !tbaa !25
  %9 = load i64, ptr %4, align 8, !tbaa !44
  %10 = getelementptr inbounds nuw %"struct.net::QuicMultipathSentPacketManager::PathSentPacketManagerInfo", ptr %8, i64 %9
  ret ptr %10
}

; Function Attrs: mustprogress nounwind uwtable
define linkonce_odr noundef i64 @_ZNKSt6vectorIN3net30QuicMultipathSentPacketManager25PathSentPacketManagerInfoESaIS2_EE4sizeEv(ptr noundef nonnull align 8 dereferenceable(24) %0) #2 comdat align 2 {
  %2 = alloca ptr, align 8
  store ptr %0, ptr %2, align 8, !tbaa !22
  %3 = load ptr, ptr %2, align 8
  %4 = getelementptr inbounds nuw %"struct.std::_Vector_base", ptr %3, i32 0, i32 0
  %5 = getelementptr inbounds nuw %"struct.std::_Vector_base<net::QuicMultipathSentPacketManager::PathSentPacketManagerInfo, std::allocator<net::QuicMultipathSentPacketManager::PathSentPacketManagerInfo>>::_Vector_impl_data", ptr %4, i32 0, i32 1
  %6 = load ptr, ptr %5, align 8, !tbaa !26
  %7 = getelementptr inbounds nuw %"struct.std::_Vector_base", ptr %3, i32 0, i32 0
  %8 = getelementptr inbounds nuw %"struct.std::_Vector_base<net::QuicMultipathSentPacketManager::PathSentPacketManagerInfo, std::allocator<net::QuicMultipathSentPacketManager::PathSentPacketManagerInfo>>::_Vector_impl_data", ptr %7, i32 0, i32 0
  %9 = load ptr, ptr %8, align 8, !tbaa !25
  %10 = ptrtoint ptr %6 to i64
  %11 = ptrtoint ptr %9 to i64
  %12 = sub i64 %10, %11
  %13 = sdiv exact i64 %12, 16
  ret i64 %13
}

; Function Attrs: mustprogress uwtable
define void @_ZN3net30QuicMultipathSentPacketManager13OnIncomingAckERKNS_12QuicAckFrameENS_8QuicTimeE(ptr noundef nonnull align 8 dereferenceable(40) %0, ptr noundef nonnull align 8 dereferenceable(100) %1, i64 %2) unnamed_addr #0 align 2 {
  %4 = alloca %"class.net::QuicTime", align 8
  %5 = alloca ptr, align 8
  %6 = alloca ptr, align 8
  %7 = alloca %"class.net::QuicTime", align 8
  %8 = getelementptr inbounds nuw %"class.net::QuicTime", ptr %4, i32 0, i32 0
  store i64 %2, ptr %8, align 8
  store ptr %0, ptr %5, align 8, !tbaa !3
  store ptr %1, ptr %6, align 8, !tbaa !47
  %9 = load ptr, ptr %5, align 8
  %10 = load ptr, ptr %6, align 8, !tbaa !47
  %11 = getelementptr inbounds nuw %"struct.net::QuicAckFrame", ptr %10, i32 0, i32 4
  %12 = load i8, ptr %11, align 8, !tbaa !49
  %13 = zext i8 %12 to i64
  %14 = getelementptr inbounds nuw %"class.net::QuicMultipathSentPacketManager", ptr %9, i32 0, i32 1
  %15 = call noundef i64 @_ZNKSt6vectorIN3net30QuicMultipathSentPacketManager25PathSentPacketManagerInfoESaIS2_EE4sizeEv(ptr noundef nonnull align 8 dereferenceable(24) %14) #15
  %16 = icmp uge i64 %13, %15
  br i1 %16, label %27, label %17

17:                                               ; preds = %3
  %18 = getelementptr inbounds nuw %"class.net::QuicMultipathSentPacketManager", ptr %9, i32 0, i32 1
  %19 = load ptr, ptr %6, align 8, !tbaa !47
  %20 = getelementptr inbounds nuw %"struct.net::QuicAckFrame", ptr %19, i32 0, i32 4
  %21 = load i8, ptr %20, align 8, !tbaa !49
  %22 = zext i8 %21 to i64
  %23 = call noundef nonnull align 8 dereferenceable(12) ptr @_ZNSt6vectorIN3net30QuicMultipathSentPacketManager25PathSentPacketManagerInfoESaIS2_EEixEm(ptr noundef nonnull align 8 dereferenceable(24) %18, i64 noundef %22) #15
  %24 = getelementptr inbounds nuw %"struct.net::QuicMultipathSentPacketManager::PathSentPacketManagerInfo", ptr %23, i32 0, i32 1
  %25 = load i32, ptr %24, align 8, !tbaa !43
  %26 = icmp ne i32 %25, 0
  br i1 %26, label %27, label %28

27:                                               ; preds = %17, %3
  br label %43

28:                                               ; preds = %17
  %29 = getelementptr inbounds nuw %"class.net::QuicMultipathSentPacketManager", ptr %9, i32 0, i32 1
  %30 = load ptr, ptr %6, align 8, !tbaa !47
  %31 = getelementptr inbounds nuw %"struct.net::QuicAckFrame", ptr %30, i32 0, i32 4
  %32 = load i8, ptr %31, align 8, !tbaa !49
  %33 = zext i8 %32 to i64
  %34 = call noundef nonnull align 8 dereferenceable(12) ptr @_ZNSt6vectorIN3net30QuicMultipathSentPacketManager25PathSentPacketManagerInfoESaIS2_EEixEm(ptr noundef nonnull align 8 dereferenceable(24) %29, i64 noundef %33) #15
  %35 = getelementptr inbounds nuw %"struct.net::QuicMultipathSentPacketManager::PathSentPacketManagerInfo", ptr %34, i32 0, i32 0
  %36 = load ptr, ptr %35, align 8, !tbaa !27
  %37 = load ptr, ptr %6, align 8, !tbaa !47
  call void @llvm.memcpy.p0.p0.i64(ptr align 8 %7, ptr align 8 %4, i64 8, i1 false), !tbaa.struct !46
  %38 = getelementptr inbounds nuw %"class.net::QuicTime", ptr %7, i32 0, i32 0
  %39 = load i64, ptr %38, align 8
  %40 = load ptr, ptr %36, align 8, !tbaa !12
  %41 = getelementptr inbounds ptr, ptr %40, i64 7
  %42 = load ptr, ptr %41, align 8
  call void %42(ptr noundef nonnull align 8 dereferenceable(8) %36, ptr noundef nonnull align 8 dereferenceable(100) %37, i64 %39)
  br label %43

43:                                               ; preds = %28, %27
  ret void
}