; Function Attrs: mustprogress uwtable
define void @_ZN3net30QuicMultipathSentPacketManager13OnIncomingAckERKNS_12QuicAckFrameENS_8QuicTimeE(ptr noundef nonnull readonly align 8 captures(none) dereferenceable(40) %0, ptr noundef nonnull align 8 dereferenceable(100) %1, i64 %2) unnamed_addr #0 align 2 {
  %4 = getelementptr inbounds nuw i8, ptr %1, i64 96
  %5 = load i8, ptr %4, align 8, !tbaa !52
  %6 = zext i8 %5 to i64
  %7 = getelementptr inbounds nuw i8, ptr %0, i64 8
  %8 = getelementptr inbounds nuw i8, ptr %0, i64 16
  %9 = load ptr, ptr %8, align 8, !tbaa !17
  %10 = load ptr, ptr %7, align 8, !tbaa !19
  %11 = ptrtoint ptr %9 to i64
  %12 = ptrtoint ptr %10 to i64
  %13 = sub i64 %11, %12
  %14 = ashr exact i64 %13, 4
  %.not = icmp ugt i64 %14, %6
  br i1 %.not, label %15, label %24

15:                                               ; preds = %3
  %16 = getelementptr inbounds nuw %"struct.net::QuicMultipathSentPacketManager::PathSentPacketManagerInfo", ptr %10, i64 %6
  %17 = getelementptr inbounds nuw i8, ptr %16, i64 8
  %18 = load i32, ptr %17, align 8, !tbaa !25
  %.not6 = icmp eq i32 %18, 0
  br i1 %.not6, label %19, label %24

19:                                               ; preds = %15
  %20 = load ptr, ptr %16, align 8, !tbaa !21
  %21 = load ptr, ptr %20, align 8, !tbaa !3
  %22 = getelementptr inbounds nuw i8, ptr %21, i64 56
  %23 = load ptr, ptr %22, align 8
  tail call void %23(ptr noundef nonnull align 8 dereferenceable(8) %20, ptr noundef nonnull align 8 dereferenceable(100) %1, i64 %2)
  br label %24

24:                                               ; preds = %3, %15, %19
  ret void
}